target datalayout = "e-m:e-p270:32:32-p271:32:32-p272:64:64-i64:64-i128:128-f80:128-n8:16:32:64-S128"
target triple = "x86_64-pc-linux-gnu"

%struct.AF_GlyphHintsRec_ = type { ptr, i64, i64, i64, i64, i32, i32, ptr, i32, i32, ptr, [2 x %struct.AF_AxisHintsRec_], i32, i32, ptr, %struct.anon.0 }
%struct.AF_AxisHintsRec_ = type { i32, i32, ptr, i32, i32, ptr, i32, %struct.anon }
%struct.anon = type { [18 x %struct.AF_SegmentRec_], [12 x %struct.AF_EdgeRec_] }
%struct.AF_SegmentRec_ = type { i8, i8, i16, i16, i16, i16, i16, ptr, ptr, ptr, ptr, i64, i64, ptr, ptr }
%struct.AF_EdgeRec_ = type { i16, i64, i64, i8, i8, i64, ptr, ptr, ptr, i32, ptr, ptr }
%struct.anon.0 = type { [8 x ptr], [96 x %struct.AF_PointRec_] }
%struct.AF_PointRec_ = type { i16, i8, i8, i64, i64, i16, i16, i64, i64, i64, i64, ptr, ptr }

; Function Attrs: nounwind uwtable
define internal void @af_glyph_hints_done(ptr noundef %0) #0 {
  %2 = alloca ptr, align 8
  %3 = alloca ptr, align 8
  %4 = alloca i32, align 4
  %5 = alloca i32, align 4
  %6 = alloca ptr, align 8
  store ptr %0, ptr %2, align 8, !tbaa !48
  call void @llvm.lifetime.start.p0(i64 8, ptr %3) #10
  call void @llvm.lifetime.start.p0(i64 4, ptr %4) #10
  %7 = load ptr, ptr %2, align 8, !tbaa !48
  %8 = icmp ne ptr %7, null
  br i1 %8, label %9, label %14

9:                                                ; preds = %1
  %10 = load ptr, ptr %2, align 8, !tbaa !48
  %11 = getelementptr inbounds nuw %struct.AF_GlyphHintsRec_, ptr %10, i32 0, i32 0
  %12 = load ptr, ptr %11, align 8, !tbaa !235
  %13 = icmp ne ptr %12, null
  br i1 %13, label %15, label %14

14:                                               ; preds = %9, %1
  store i32 1, ptr %5, align 4
  br label %126

15:                                               ; preds = %9
  %16 = load ptr, ptr %2, align 8, !tbaa !48
  %17 = getelementptr inbounds nuw %struct.AF_GlyphHintsRec_, ptr %16, i32 0, i32 0
  %18 = load ptr, ptr %17, align 8, !tbaa !235
  store ptr %18, ptr %3, align 8, !tbaa !108
  store i32 0, ptr %4, align 4, !tbaa !43
  br label %19

19:                                               ; preds = %74, %15
  %20 = load i32, ptr %4, align 4, !tbaa !43
  %21 = icmp slt i32 %20, 2
  br i1 %21, label %22, label %77

22:                                               ; preds = %19
  call void @llvm.lifetime.start.p0(i64 8, ptr %6) #10
  %23 = load ptr, ptr %2, align 8, !tbaa !48
  %24 = getelementptr inbounds nuw %struct.AF_GlyphHintsRec_, ptr %23, i32 0, i32 11
  %25 = load i32, ptr %4, align 4, !tbaa !43
  %26 = sext i32 %25 to i64
  %27 = getelementptr inbounds [2 x %struct.AF_AxisHintsRec_], ptr %24, i64 0, i64 %26
  store ptr %27, ptr %6, align 8, !tbaa !192
  %28 = load ptr, ptr %6, align 8, !tbaa !192
  %29 = getelementptr inbounds nuw %struct.AF_AxisHintsRec_, ptr %28, i32 0, i32 0
  store i32 0, ptr %29, align 8, !tbaa !200
  %30 = load ptr, ptr %6, align 8, !tbaa !192
  %31 = getelementptr inbounds nuw %struct.AF_AxisHintsRec_, ptr %30, i32 0, i32 1
  store i32 0, ptr %31, align 4, !tbaa !299
  %32 = load ptr, ptr %6, align 8, !tbaa !192
  %33 = getelementptr inbounds nuw %struct.AF_AxisHintsRec_, ptr %32, i32 0, i32 2
  %34 = load ptr, ptr %33, align 8, !tbaa !194
  %35 = load ptr, ptr %6, align 8, !tbaa !192
  %36 = getelementptr inbounds nuw %struct.AF_AxisHintsRec_, ptr %35, i32 0, i32 7
  %37 = getelementptr inbounds nuw %struct.anon, ptr %36, i32 0, i32 0
  %38 = getelementptr inbounds [18 x %struct.AF_SegmentRec_], ptr %37, i64 0, i64 0
  %39 = icmp ne ptr %34, %38
  br i1 %39, label %40, label %50

40:                                               ; preds = %22
  br label %41

41:                                               ; preds = %40
  %42 = load ptr, ptr %3, align 8, !tbaa !108
  %43 = load ptr, ptr %6, align 8, !tbaa !192
  %44 = getelementptr inbounds nuw %struct.AF_AxisHintsRec_, ptr %43, i32 0, i32 2
  %45 = load ptr, ptr %44, align 8, !tbaa !194
  call void @ft_mem_free(ptr noundef %42, ptr noundef %45)
  %46 = load ptr, ptr %6, align 8, !tbaa !192
  %47 = getelementptr inbounds nuw %struct.AF_AxisHintsRec_, ptr %46, i32 0, i32 2
  store ptr null, ptr %47, align 8, !tbaa !194
  br label %48

48:                                               ; preds = %41
  br label %49

49:                                               ; preds = %48
  br label %50

50:                                               ; preds = %49, %22
  %51 = load ptr, ptr %6, align 8, !tbaa !192
  %52 = getelementptr inbounds nuw %struct.AF_AxisHintsRec_, ptr %51, i32 0, i32 3
  store i32 0, ptr %52, align 8, !tbaa !240
  %53 = load ptr, ptr %6, align 8, !tbaa !192
  %54 = getelementptr inbounds nuw %struct.AF_AxisHintsRec_, ptr %53, i32 0, i32 4
  store i32 0, ptr %54, align 4, !tbaa !300
  %55 = load ptr, ptr %6, align 8, !tbaa !192
  %56 = getelementptr inbounds nuw %struct.AF_AxisHintsRec_, ptr %55, i32 0, i32 5
  %57 = load ptr, ptr %56, align 8, !tbaa !301
  %58 = load ptr, ptr %6, align 8, !tbaa !192
  %59 = getelementptr inbounds nuw %struct.AF_AxisHintsRec_, ptr %58, i32 0, i32 7
  %60 = getelementptr inbounds nuw %struct.anon, ptr %59, i32 0, i32 1
  %61 = getelementptr inbounds [12 x %struct.AF_EdgeRec_], ptr %60, i64 0, i64 0
  %62 = icmp ne ptr %57, %61
  br i1 %62, label %63, label %73

63:                                               ; preds = %50
  br label %64

64:                                               ; preds = %63
  %65 = load ptr, ptr %3, align 8, !tbaa !108
  %66 = load ptr, ptr %6, align 8, !tbaa !192
  %67 = getelementptr inbounds nuw %struct.AF_AxisHintsRec_, ptr %66, i32 0, i32 5
  %68 = load ptr, ptr %67, align 8, !tbaa !301
  call void @ft_mem_free(ptr noundef %65, ptr noundef %68)
  %69 = load ptr, ptr %6, align 8, !tbaa !192
  %70 = getelementptr inbounds nuw %struct.AF_AxisHintsRec_, ptr %69, i32 0, i32 5
  store ptr null, ptr %70, align 8, !tbaa !301
  br label %71

71:                                               ; preds = %64
  br label %72

72:                                               ; preds = %71
  br label %73

73:                                               ; preds = %72, %50
  call void @llvm.lifetime.end.p0(i64 8, ptr %6) #10
  br label %74

74:                                               ; preds = %73
  %75 = load i32, ptr %4, align 4, !tbaa !43
  %76 = add nsw i32 %75, 1
  store i32 %76, ptr %4, align 4, !tbaa !43
  br label %19, !llvm.loop !302

77:                                               ; preds = %19
  %78 = load ptr, ptr %2, align 8, !tbaa !48
  %79 = getelementptr inbounds nuw %struct.AF_GlyphHintsRec_, ptr %78, i32 0, i32 10
  %80 = load ptr, ptr %79, align 8, !tbaa !242
  %81 = load ptr, ptr %2, align 8, !tbaa !48
  %82 = getelementptr inbounds nuw %struct.AF_GlyphHintsRec_, ptr %81, i32 0, i32 15
  %83 = getelementptr inbounds nuw %struct.anon.0, ptr %82, i32 0, i32 0
  %84 = getelementptr inbounds [8 x ptr], ptr %83, i64 0, i64 0
  %85 = icmp ne ptr %80, %84
  br i1 %85, label %86, label %96

86:                                               ; preds = %77
  br label %87

87:                                               ; preds = %86
  %88 = load ptr, ptr %3, align 8, !tbaa !108
  %89 = load ptr, ptr %2, align 8, !tbaa !48
  %90 = getelementptr inbounds nuw %struct.AF_GlyphHintsRec_, ptr %89, i32 0, i32 10
  %91 = load ptr, ptr %90, align 8, !tbaa !242
  call void @ft_mem_free(ptr noundef %88, ptr noundef %91)
  %92 = load ptr, ptr %2, align 8, !tbaa !48
  %93 = getelementptr inbounds nuw %struct.AF_GlyphHintsRec_, ptr %92, i32 0, i32 10
  store ptr null, ptr %93, align 8, !tbaa !242
  br label %94

94:                                               ; preds = %87
  br label %95

95:                                               ; preds = %94
  br label %96

96:                                               ; preds = %95, %77
  %97 = load ptr, ptr %2, align 8, !tbaa !48
  %98 = getelementptr inbounds nuw %struct.AF_GlyphHintsRec_, ptr %97, i32 0, i32 8
  store i32 0, ptr %98, align 8, !tbaa !241
  %99 = load ptr, ptr %2, align 8, !tbaa !48
  %100 = getelementptr inbounds nuw %struct.AF_GlyphHintsRec_, ptr %99, i32 0, i32 9
  store i32 0, ptr %100, align 4, !tbaa !239
  %101 = load ptr, ptr %2, align 8, !tbaa !48
  %102 = getelementptr inbounds nuw %struct.AF_GlyphHintsRec_, ptr %101, i32 0, i32 7
  %103 = load ptr, ptr %102, align 8, !tbaa !244
  %104 = load ptr, ptr %2, align 8, !tbaa !48
  %105 = getelementptr inbounds nuw %struct.AF_GlyphHintsRec_, ptr %104, i32 0, i32 15
  %106 = getelementptr inbounds nuw %struct.anon.0, ptr %105, i32 0, i32 1
  %107 = getelementptr inbounds [96 x %struct.AF_PointRec_], ptr %106, i64 0, i64 0
  %108 = icmp ne ptr %103, %107
  br i1 %108, label %109, label %119

109:                                              ; preds = %96
  br label %110

110:                                              ; preds = %109
  %111 = load ptr, ptr %3, align 8, !tbaa !108
  %112 = load ptr, ptr %2, align 8, !tbaa !48
  %113 = getelementptr inbounds nuw %struct.AF_GlyphHintsRec_, ptr %112, i32 0, i32 7
  %114 = load ptr, ptr %113, align 8, !tbaa !244
  call void @ft_mem_free(ptr noundef %111, ptr noundef %114)
  %115 = load ptr, ptr %2, align 8, !tbaa !48
  %116 = getelementptr inbounds nuw %struct.AF_GlyphHintsRec_, ptr %115, i32 0, i32 7
  store ptr null, ptr %116, align 8, !tbaa !244
  br label %117

117:                                              ; preds = %110
  br label %118

118:                                              ; preds = %117
  br label %119

119:                                              ; preds = %118, %96
  %120 = load ptr, ptr %2, align 8, !tbaa !48
  %121 = getelementptr inbounds nuw %struct.AF_GlyphHintsRec_, ptr %120, i32 0, i32 5
  store i32 0, ptr %121, align 8, !tbaa !243
  %122 = load ptr, ptr %2, align 8, !tbaa !48
  %123 = getelementptr inbounds nuw %struct.AF_GlyphHintsRec_, ptr %122, i32 0, i32 6
  store i32 0, ptr %123, align 4, !tbaa !238
  %124 = load ptr, ptr %2, align 8, !tbaa !48
  %125 = getelementptr inbounds nuw %struct.AF_GlyphHintsRec_, ptr %124, i32 0, i32 0
  store ptr null, ptr %125, align 8, !tbaa !235
  store i32 0, ptr %5, align 4
  br label %126

126:                                              ; preds = %119, %14
  call void @llvm.lifetime.end.p0(i64 4, ptr %4) #10
  call void @llvm.lifetime.end.p0(i64 8, ptr %3) #10
  %127 = load i32, ptr %5, align 4
  switch i32 %127, label %129 [
    i32 0, label %128
    i32 1, label %128
  ]

128:                                              ; preds = %126, %126
  ret void

129:                                              ; preds = %126
  unreachable
}