; Function Attrs: nounwind uwtable
define internal fastcc void @af_glyph_hints_done(ptr noundef nonnull %0) unnamed_addr #0 {
  %2 = load ptr, ptr %0, align 8, !tbaa !121
  %.not = icmp eq ptr %2, null
  br i1 %.not, label %35, label %.preheader

.preheader:                                       ; preds = %1
  %3 = getelementptr inbounds nuw i8, ptr %0, i64 72
  br label %4

4:                                                ; preds = %.preheader, %19
  %5 = phi i1 [ true, %.preheader ], [ false, %19 ]
  %indvars.iv = phi i64 [ 0, %.preheader ], [ 1, %19 ]
  %6 = getelementptr inbounds nuw [2 x %struct.AF_AxisHintsRec_], ptr %3, i64 0, i64 %indvars.iv
  store i32 0, ptr %6, align 8, !tbaa !144
  %7 = getelementptr inbounds nuw i8, ptr %6, i64 4
  store i32 0, ptr %7, align 4, !tbaa !357
  %8 = getelementptr inbounds nuw i8, ptr %6, i64 8
  %9 = load ptr, ptr %8, align 8, !tbaa !143
  %10 = getelementptr inbounds nuw i8, ptr %6, i64 40
  %.not43 = icmp eq ptr %9, %10
  br i1 %.not43, label %12, label %11

11:                                               ; preds = %4
  tail call void @ft_mem_free(ptr noundef nonnull %2, ptr noundef %9) #20
  store ptr null, ptr %8, align 8, !tbaa !143
  br label %12

12:                                               ; preds = %11, %4
  %13 = getelementptr inbounds nuw i8, ptr %6, i64 16
  store i32 0, ptr %13, align 8, !tbaa !90
  %14 = getelementptr inbounds nuw i8, ptr %6, i64 20
  store i32 0, ptr %14, align 4, !tbaa !373
  %15 = getelementptr inbounds nuw i8, ptr %6, i64 24
  %16 = load ptr, ptr %15, align 8, !tbaa !85
  %17 = getelementptr inbounds nuw i8, ptr %6, i64 1480
  %.not44 = icmp eq ptr %16, %17
  br i1 %.not44, label %19, label %18

18:                                               ; preds = %12
  tail call void @ft_mem_free(ptr noundef nonnull %2, ptr noundef %16) #20
  store ptr null, ptr %15, align 8, !tbaa !85
  br label %19

19:                                               ; preds = %18, %12
  br i1 %5, label %4, label %20, !llvm.loop !374

20:                                               ; preds = %19
  %21 = getelementptr inbounds nuw i8, ptr %0, i64 64
  %22 = load ptr, ptr %21, align 8, !tbaa !323
  %23 = getelementptr inbounds nuw i8, ptr %0, i64 5160
  %.not41 = icmp eq ptr %22, %23
  br i1 %.not41, label %25, label %24

24:                                               ; preds = %20
  tail call void @ft_mem_free(ptr noundef nonnull %2, ptr noundef %22) #20
  store ptr null, ptr %21, align 8, !tbaa !323
  br label %25

25:                                               ; preds = %24, %20
  %26 = getelementptr inbounds nuw i8, ptr %0, i64 56
  store i32 0, ptr %26, align 8, !tbaa !322
  %27 = getelementptr inbounds nuw i8, ptr %0, i64 60
  store i32 0, ptr %27, align 4, !tbaa !320
  %28 = getelementptr inbounds nuw i8, ptr %0, i64 48
  %29 = load ptr, ptr %28, align 8, !tbaa !109
  %30 = getelementptr inbounds nuw i8, ptr %0, i64 5224
  %.not42 = icmp eq ptr %29, %30
  br i1 %.not42, label %32, label %31

31:                                               ; preds = %25
  tail call void @ft_mem_free(ptr noundef nonnull %2, ptr noundef %29) #20
  store ptr null, ptr %28, align 8, !tbaa !109
  br label %32

32:                                               ; preds = %31, %25
  %33 = getelementptr inbounds nuw i8, ptr %0, i64 40
  store i32 0, ptr %33, align 8, !tbaa !325
  %34 = getelementptr inbounds nuw i8, ptr %0, i64 44
  store i32 0, ptr %34, align 4, !tbaa !108
  store ptr null, ptr %0, align 8, !tbaa !121
  br label %35

35:                                               ; preds = %1, %32
  ret void
}